target datalayout = "e-m:e-p270:32:32-p271:32:32-p272:64:64-i64:64-i128:128-f80:128-n8:16:32:64-S128"
target triple = "x86_64-pc-linux-gnu"

%struct.b2AtomicInt = type { i32 }
%struct.b2StepContext = type { float, float, float, float, i32, %struct.b2Softness, %struct.b2Softness, %struct.b2Softness, float, float, ptr, ptr, ptr, ptr, ptr, i32, ptr, %struct.b2AtomicInt, ptr, ptr, ptr, i32, i32, ptr, i32, i8, [64 x i8], %struct.b2AtomicU32, [64 x i8] }
%struct.b2Softness = type { float, float, float }
%struct.b2AtomicU32 = type { i32 }
%struct.b2SolverBlock = type { i32, i16, i16, %struct.b2AtomicInt }
%struct.b2SolverStage = type { i32, ptr, i32, i32, %struct.b2AtomicInt }

; Function Attrs: inlinehint nounwind uwtable
define internal i32 @b2MinInt(i32 noundef %0, i32 noundef %1) #3 {
  %3 = alloca i32, align 4
  %4 = alloca i32, align 4
  store i32 %0, ptr %3, align 4, !tbaa !78
  store i32 %1, ptr %4, align 4, !tbaa !78
  %5 = load i32, ptr %3, align 4, !tbaa !78
  %6 = load i32, ptr %4, align 4, !tbaa !78
  %7 = icmp slt i32 %5, %6
  br i1 %7, label %8, label %10

8:                                                ; preds = %2
  %9 = load i32, ptr %3, align 4, !tbaa !78
  br label %12

10:                                               ; preds = %2
  %11 = load i32, ptr %4, align 4, !tbaa !78
  br label %12

12:                                               ; preds = %10, %8
  %13 = phi i32 [ %9, %8 ], [ %11, %10 ]
  ret i32 %13
}

; Function Attrs: inlinehint nounwind uwtable
define internal i32 @b2AtomicFetchAddInt(ptr noundef %0, i32 noundef %1) #3 {
  %3 = alloca ptr, align 8
  %4 = alloca i32, align 4
  %5 = alloca i32, align 4
  %6 = alloca i32, align 4
  store ptr %0, ptr %3, align 8, !tbaa !252
  store i32 %1, ptr %4, align 4, !tbaa !78
  %7 = load ptr, ptr %3, align 8, !tbaa !252
  %8 = getelementptr inbounds nuw %struct.b2AtomicInt, ptr %7, i32 0, i32 0
  %9 = load i32, ptr %4, align 4, !tbaa !78
  store i32 %9, ptr %5, align 4, !tbaa !78
  %10 = load i32, ptr %5, align 4
  %11 = atomicrmw add ptr %8, i32 %10 seq_cst, align 4
  store i32 %11, ptr %6, align 4
  %12 = load i32, ptr %6, align 4, !tbaa !78
  ret i32 %12
}

; Function Attrs: inlinehint nounwind uwtable
define internal zeroext i1 @b2AtomicCompareExchangeInt(ptr noundef %0, i32 noundef %1, i32 noundef %2) #3 {
  %4 = alloca ptr, align 8
  %5 = alloca i32, align 4
  %6 = alloca i32, align 4
  %7 = alloca i32, align 4
  %8 = alloca i8, align 1
  store ptr %0, ptr %4, align 8, !tbaa !252
  store i32 %1, ptr %5, align 4, !tbaa !78
  store i32 %2, ptr %6, align 4, !tbaa !78
  %9 = load ptr, ptr %4, align 8, !tbaa !252
  %10 = getelementptr inbounds nuw %struct.b2AtomicInt, ptr %9, i32 0, i32 0
  %11 = load i32, ptr %6, align 4, !tbaa !78
  store i32 %11, ptr %7, align 4, !tbaa !78
  %12 = load i32, ptr %5, align 4
  %13 = load i32, ptr %7, align 4
  %14 = cmpxchg ptr %10, i32 %12, i32 %13 seq_cst seq_cst, align 4
  %15 = extractvalue { i32, i1 } %14, 0
  %16 = extractvalue { i32, i1 } %14, 1
  br i1 %16, label %18, label %17

17:                                               ; preds = %3
  store i32 %15, ptr %5, align 4
  br label %18

18:                                               ; preds = %17, %3
  %19 = zext i1 %16 to i8
  store i8 %19, ptr %8, align 1, !tbaa !179
  %20 = load i8, ptr %8, align 1, !tbaa !179, !range !188, !noundef !189
  %21 = trunc i8 %20 to i1
  ret i1 %21
}

; Function Attrs: inlinehint nounwind uwtable
define internal i32 @GetWorkerStartIndex(i32 noundef %0, i32 noundef %1, i32 noundef %2) #3 {
  %4 = alloca i32, align 4
  %5 = alloca i32, align 4
  %6 = alloca i32, align 4
  %7 = alloca i32, align 4
  %8 = alloca i32, align 4
  %9 = alloca i32, align 4
  store i32 %0, ptr %5, align 4, !tbaa !78
  store i32 %1, ptr %6, align 4, !tbaa !78
  store i32 %2, ptr %7, align 4, !tbaa !78
  %10 = load i32, ptr %6, align 4, !tbaa !78
  %11 = load i32, ptr %7, align 4, !tbaa !78
  %12 = icmp sle i32 %10, %11
  br i1 %12, label %13, label %22

13:                                               ; preds = %3
  %14 = load i32, ptr %5, align 4, !tbaa !78
  %15 = load i32, ptr %6, align 4, !tbaa !78
  %16 = icmp slt i32 %14, %15
  br i1 %16, label %17, label %19

17:                                               ; preds = %13
  %18 = load i32, ptr %5, align 4, !tbaa !78
  br label %20

19:                                               ; preds = %13
  br label %20

20:                                               ; preds = %19, %17
  %21 = phi i32 [ %18, %17 ], [ -1, %19 ]
  store i32 %21, ptr %4, align 4
  br label %38

22:                                               ; preds = %3
  call void @llvm.lifetime.start.p0(i64 4, ptr %8) #10
  %23 = load i32, ptr %6, align 4, !tbaa !78
  %24 = load i32, ptr %7, align 4, !tbaa !78
  %25 = sdiv i32 %23, %24
  store i32 %25, ptr %8, align 4, !tbaa !78
  call void @llvm.lifetime.start.p0(i64 4, ptr %9) #10
  %26 = load i32, ptr %6, align 4, !tbaa !78
  %27 = load i32, ptr %8, align 4, !tbaa !78
  %28 = load i32, ptr %7, align 4, !tbaa !78
  %29 = mul nsw i32 %27, %28
  %30 = sub nsw i32 %26, %29
  store i32 %30, ptr %9, align 4, !tbaa !78
  %31 = load i32, ptr %8, align 4, !tbaa !78
  %32 = load i32, ptr %5, align 4, !tbaa !78
  %33 = mul nsw i32 %31, %32
  %34 = load i32, ptr %9, align 4, !tbaa !78
  %35 = load i32, ptr %5, align 4, !tbaa !78
  %36 = call i32 @b2MinInt(i32 noundef %34, i32 noundef %35)
  %37 = add nsw i32 %33, %36
  store i32 %37, ptr %4, align 4
  call void @llvm.lifetime.end.p0(i64 4, ptr %9) #10
  call void @llvm.lifetime.end.p0(i64 4, ptr %8) #10
  br label %38

38:                                               ; preds = %22, %20
  %39 = load i32, ptr %4, align 4
  ret i32 %39
}

; Function Attrs: inlinehint nounwind uwtable
define internal void @b2AtomicStoreInt(ptr noundef %0, i32 noundef %1) #3 {
  %3 = alloca ptr, align 8
  %4 = alloca i32, align 4
  %5 = alloca i32, align 4
  store ptr %0, ptr %3, align 8, !tbaa !252
  store i32 %1, ptr %4, align 4, !tbaa !78
  %6 = load ptr, ptr %3, align 8, !tbaa !252
  %7 = getelementptr inbounds nuw %struct.b2AtomicInt, ptr %6, i32 0, i32 0
  %8 = load i32, ptr %4, align 4, !tbaa !78
  store i32 %8, ptr %5, align 4, !tbaa !78
  %9 = load i32, ptr %5, align 4
  store atomic i32 %9, ptr %7 seq_cst, align 4
  ret void
}

; Function Attrs: inlinehint nounwind uwtable
define internal void @b2Pause() #3 {
  call void asm sideeffect "pause\0A", "~{dirflag},~{fpsr},~{flags}"() #10, !srcloc !324
  ret void
}

; Function Attrs: inlinehint nounwind uwtable
define internal i32 @b2AtomicLoadInt(ptr noundef %0) #3 {
  %2 = alloca ptr, align 8
  %3 = alloca i32, align 4
  store ptr %0, ptr %2, align 8, !tbaa !252
  %4 = load ptr, ptr %2, align 8, !tbaa !252
  %5 = getelementptr inbounds nuw %struct.b2AtomicInt, ptr %4, i32 0, i32 0
  %6 = load atomic i32, ptr %5 seq_cst, align 4
  store i32 %6, ptr %3, align 4
  %7 = load i32, ptr %3, align 4, !tbaa !78
  ret i32 %7
}

; Function Attrs: nounwind uwtable
define internal void @b2ExecuteStage(ptr noundef %0, ptr noundef %1, i32 noundef %2, i32 noundef %3, i32 noundef %4) #4 {
  %6 = alloca ptr, align 8
  %7 = alloca ptr, align 8
  %8 = alloca i32, align 4
  %9 = alloca i32, align 4
  %10 = alloca i32, align 4
  %11 = alloca i32, align 4
  %12 = alloca ptr, align 8
  %13 = alloca i32, align 4
  %14 = alloca i32, align 4
  %15 = alloca i32, align 4
  %16 = alloca i32, align 4
  %17 = alloca i32, align 4
  store ptr %0, ptr %6, align 8, !tbaa !120
  store ptr %1, ptr %7, align 8, !tbaa !8
  store i32 %2, ptr %8, align 4, !tbaa !78
  store i32 %3, ptr %9, align 4, !tbaa !78
  store i32 %4, ptr %10, align 4, !tbaa !78
  call void @llvm.lifetime.start.p0(i64 4, ptr %11) #10
  store i32 0, ptr %11, align 4, !tbaa !78
  call void @llvm.lifetime.start.p0(i64 8, ptr %12) #10
  %18 = load ptr, ptr %6, align 8, !tbaa !120
  %19 = getelementptr inbounds nuw %struct.b2SolverStage, ptr %18, i32 0, i32 1
  %20 = load ptr, ptr %19, align 8, !tbaa !139
  store ptr %20, ptr %12, align 8, !tbaa !121
  call void @llvm.lifetime.start.p0(i64 4, ptr %13) #10
  %21 = load ptr, ptr %6, align 8, !tbaa !120
  %22 = getelementptr inbounds nuw %struct.b2SolverStage, ptr %21, i32 0, i32 2
  %23 = load i32, ptr %22, align 8, !tbaa !140
  store i32 %23, ptr %13, align 4, !tbaa !78
  call void @llvm.lifetime.start.p0(i64 4, ptr %14) #10
  %24 = load i32, ptr %8, align 4, !tbaa !78
  store i32 %24, ptr %14, align 4, !tbaa !78
  call void @llvm.lifetime.start.p0(i64 4, ptr %15) #10
  %25 = load i32, ptr %10, align 4, !tbaa !78
  %26 = load i32, ptr %13, align 4, !tbaa !78
  %27 = load ptr, ptr %7, align 8, !tbaa !8
  %28 = getelementptr inbounds nuw %struct.b2StepContext, ptr %27, i32 0, i32 22
  %29 = load i32, ptr %28, align 4, !tbaa !151
  %30 = call i32 @GetWorkerStartIndex(i32 noundef %25, i32 noundef %26, i32 noundef %29)
  store i32 %30, ptr %15, align 4, !tbaa !78
  %31 = load i32, ptr %15, align 4, !tbaa !78
  %32 = icmp eq i32 %31, -1
  br i1 %32, label %33, label %34

33:                                               ; preds = %5
  store i32 1, ptr %16, align 4
  br label %103

34:                                               ; preds = %5
  call void @llvm.lifetime.start.p0(i64 4, ptr %17) #10
  %35 = load i32, ptr %15, align 4, !tbaa !78
  store i32 %35, ptr %17, align 4, !tbaa !78
  br label %36

36:                                               ; preds = %62, %34
  %37 = load ptr, ptr %12, align 8, !tbaa !121
  %38 = load i32, ptr %17, align 4, !tbaa !78
  %39 = sext i32 %38 to i64
  %40 = getelementptr inbounds %struct.b2SolverBlock, ptr %37, i64 %39
  %41 = getelementptr inbounds nuw %struct.b2SolverBlock, ptr %40, i32 0, i32 3
  %42 = load i32, ptr %14, align 4, !tbaa !78
  %43 = load i32, ptr %9, align 4, !tbaa !78
  %44 = call zeroext i1 @b2AtomicCompareExchangeInt(ptr noundef %41, i32 noundef %42, i32 noundef %43)
  %45 = zext i1 %44 to i32
  %46 = icmp eq i32 %45, 1
  br i1 %46, label %47, label %64

47:                                               ; preds = %36
  %48 = load ptr, ptr %6, align 8, !tbaa !120
  %49 = load ptr, ptr %7, align 8, !tbaa !8
  %50 = load ptr, ptr %12, align 8, !tbaa !121
  %51 = load i32, ptr %17, align 4, !tbaa !78
  %52 = sext i32 %51 to i64
  %53 = getelementptr inbounds %struct.b2SolverBlock, ptr %50, i64 %52
  call void @b2ExecuteBlock(ptr noundef %48, ptr noundef %49, ptr noundef %53)
  %54 = load i32, ptr %11, align 4, !tbaa !78
  %55 = add nsw i32 %54, 1
  store i32 %55, ptr %11, align 4, !tbaa !78
  %56 = load i32, ptr %17, align 4, !tbaa !78
  %57 = add nsw i32 %56, 1
  store i32 %57, ptr %17, align 4, !tbaa !78
  %58 = load i32, ptr %17, align 4, !tbaa !78
  %59 = load i32, ptr %13, align 4, !tbaa !78
  %60 = icmp sge i32 %58, %59
  br i1 %60, label %61, label %62

61:                                               ; preds = %47
  store i32 0, ptr %17, align 4, !tbaa !78
  br label %62

62:                                               ; preds = %61, %47
  %63 = load i32, ptr %8, align 4, !tbaa !78
  store i32 %63, ptr %14, align 4, !tbaa !78
  br label %36, !llvm.loop !325

64:                                               ; preds = %36
  %65 = load i32, ptr %15, align 4, !tbaa !78
  %66 = sub nsw i32 %65, 1
  store i32 %66, ptr %17, align 4, !tbaa !78
  br label %67

67:                                               ; preds = %87, %64
  br label %68

68:                                               ; preds = %67
  %69 = load i32, ptr %17, align 4, !tbaa !78
  %70 = icmp slt i32 %69, 0
  br i1 %70, label %71, label %74

71:                                               ; preds = %68
  %72 = load i32, ptr %13, align 4, !tbaa !78
  %73 = sub nsw i32 %72, 1
  store i32 %73, ptr %17, align 4, !tbaa !78
  br label %74

74:                                               ; preds = %71, %68
  %75 = load i32, ptr %8, align 4, !tbaa !78
  store i32 %75, ptr %14, align 4, !tbaa !78
  %76 = load ptr, ptr %12, align 8, !tbaa !121
  %77 = load i32, ptr %17, align 4, !tbaa !78
  %78 = sext i32 %77 to i64
  %79 = getelementptr inbounds %struct.b2SolverBlock, ptr %76, i64 %78
  %80 = getelementptr inbounds nuw %struct.b2SolverBlock, ptr %79, i32 0, i32 3
  %81 = load i32, ptr %14, align 4, !tbaa !78
  %82 = load i32, ptr %9, align 4, !tbaa !78
  %83 = call zeroext i1 @b2AtomicCompareExchangeInt(ptr noundef %80, i32 noundef %81, i32 noundef %82)
  %84 = zext i1 %83 to i32
  %85 = icmp eq i32 %84, 0
  br i1 %85, label %86, label %87

86:                                               ; preds = %74
  br label %98

87:                                               ; preds = %74
  %88 = load ptr, ptr %6, align 8, !tbaa !120
  %89 = load ptr, ptr %7, align 8, !tbaa !8
  %90 = load ptr, ptr %12, align 8, !tbaa !121
  %91 = load i32, ptr %17, align 4, !tbaa !78
  %92 = sext i32 %91 to i64
  %93 = getelementptr inbounds %struct.b2SolverBlock, ptr %90, i64 %92
  call void @b2ExecuteBlock(ptr noundef %88, ptr noundef %89, ptr noundef %93)
  %94 = load i32, ptr %11, align 4, !tbaa !78
  %95 = add nsw i32 %94, 1
  store i32 %95, ptr %11, align 4, !tbaa !78
  %96 = load i32, ptr %17, align 4, !tbaa !78
  %97 = sub nsw i32 %96, 1
  store i32 %97, ptr %17, align 4, !tbaa !78
  br label %67

98:                                               ; preds = %86
  %99 = load ptr, ptr %6, align 8, !tbaa !120
  %100 = getelementptr inbounds nuw %struct.b2SolverStage, ptr %99, i32 0, i32 4
  %101 = load i32, ptr %11, align 4, !tbaa !78
  %102 = call i32 @b2AtomicFetchAddInt(ptr noundef %100, i32 noundef %101)
  call void @llvm.lifetime.end.p0(i64 4, ptr %17) #10
  store i32 0, ptr %16, align 4
  br label %103

103:                                              ; preds = %98, %33
  call void @llvm.lifetime.end.p0(i64 4, ptr %15) #10
  call void @llvm.lifetime.end.p0(i64 4, ptr %14) #10
  call void @llvm.lifetime.end.p0(i64 4, ptr %13) #10
  call void @llvm.lifetime.end.p0(i64 8, ptr %12) #10
  call void @llvm.lifetime.end.p0(i64 4, ptr %11) #10
  %104 = load i32, ptr %16, align 4
  switch i32 %104, label %106 [
    i32 0, label %105
    i32 1, label %105
  ]

105:                                              ; preds = %103, %103
  ret void

106:                                              ; preds = %103
  unreachable
}

; Function Attrs: inlinehint nounwind uwtable
define internal void @b2AtomicStoreU32(ptr noundef %0, i32 noundef %1) #3 {
  %3 = alloca ptr, align 8
  %4 = alloca i32, align 4
  %5 = alloca i32, align 4
  store ptr %0, ptr %3, align 8, !tbaa !255
  store i32 %1, ptr %4, align 4, !tbaa !78
  %6 = load ptr, ptr %3, align 8, !tbaa !255
  %7 = getelementptr inbounds nuw %struct.b2AtomicU32, ptr %6, i32 0, i32 0
  %8 = load i32, ptr %4, align 4, !tbaa !78
  store i32 %8, ptr %5, align 4, !tbaa !78
  %9 = load i32, ptr %5, align 4
  store atomic i32 %9, ptr %7 seq_cst, align 4
  ret void
}

; Function Attrs: nounwind uwtable
define internal void @b2ExecuteMainStage(ptr noundef %0, ptr noundef %1, i32 noundef %2) #4 {
  %4 = alloca ptr, align 8
  %5 = alloca ptr, align 8
  %6 = alloca i32, align 4
  %7 = alloca i32, align 4
  %8 = alloca i32, align 4
  %9 = alloca i32, align 4
  %10 = alloca i32, align 4
  store ptr %0, ptr %4, align 8, !tbaa !120
  store ptr %1, ptr %5, align 8, !tbaa !8
  store i32 %2, ptr %6, align 4, !tbaa !78
  call void @llvm.lifetime.start.p0(i64 4, ptr %7) #10
  %11 = load ptr, ptr %4, align 8, !tbaa !120
  %12 = getelementptr inbounds nuw %struct.b2SolverStage, ptr %11, i32 0, i32 2
  %13 = load i32, ptr %12, align 8, !tbaa !140
  store i32 %13, ptr %7, align 4, !tbaa !78
  %14 = load i32, ptr %7, align 4, !tbaa !78
  %15 = icmp eq i32 %14, 0
  br i1 %15, label %16, label %17

16:                                               ; preds = %3
  store i32 1, ptr %8, align 4
  br label %50

17:                                               ; preds = %3
  %18 = load i32, ptr %7, align 4, !tbaa !78
  %19 = icmp eq i32 %18, 1
  br i1 %19, label %20, label %26

20:                                               ; preds = %17
  %21 = load ptr, ptr %4, align 8, !tbaa !120
  %22 = load ptr, ptr %5, align 8, !tbaa !8
  %23 = load ptr, ptr %4, align 8, !tbaa !120
  %24 = getelementptr inbounds nuw %struct.b2SolverStage, ptr %23, i32 0, i32 1
  %25 = load ptr, ptr %24, align 8, !tbaa !139
  call void @b2ExecuteBlock(ptr noundef %21, ptr noundef %22, ptr noundef %25)
  br label %49

26:                                               ; preds = %17
  %27 = load ptr, ptr %5, align 8, !tbaa !8
  %28 = getelementptr inbounds nuw %struct.b2StepContext, ptr %27, i32 0, i32 27
  %29 = load i32, ptr %6, align 4, !tbaa !78
  call void @b2AtomicStoreU32(ptr noundef %28, i32 noundef %29)
  call void @llvm.lifetime.start.p0(i64 4, ptr %9) #10
  %30 = load i32, ptr %6, align 4, !tbaa !78
  %31 = lshr i32 %30, 16
  %32 = and i32 %31, 65535
  store i32 %32, ptr %9, align 4, !tbaa !78
  call void @llvm.lifetime.start.p0(i64 4, ptr %10) #10
  %33 = load i32, ptr %9, align 4, !tbaa !78
  %34 = sub nsw i32 %33, 1
  store i32 %34, ptr %10, align 4, !tbaa !78
  %35 = load ptr, ptr %4, align 8, !tbaa !120
  %36 = load ptr, ptr %5, align 8, !tbaa !8
  %37 = load i32, ptr %10, align 4, !tbaa !78
  %38 = load i32, ptr %9, align 4, !tbaa !78
  call void @b2ExecuteStage(ptr noundef %35, ptr noundef %36, i32 noundef %37, i32 noundef %38, i32 noundef 0)
  br label %39

39:                                               ; preds = %45, %26
  %40 = load ptr, ptr %4, align 8, !tbaa !120
  %41 = getelementptr inbounds nuw %struct.b2SolverStage, ptr %40, i32 0, i32 4
  %42 = call i32 @b2AtomicLoadInt(ptr noundef %41)
  %43 = load i32, ptr %7, align 4, !tbaa !78
  %44 = icmp ne i32 %42, %43
  br i1 %44, label %45, label %46

45:                                               ; preds = %39
  call void @b2Pause()
  br label %39, !llvm.loop !323

46:                                               ; preds = %39
  %47 = load ptr, ptr %4, align 8, !tbaa !120
  %48 = getelementptr inbounds nuw %struct.b2SolverStage, ptr %47, i32 0, i32 4
  call void @b2AtomicStoreInt(ptr noundef %48, i32 noundef 0)
  call void @llvm.lifetime.end.p0(i64 4, ptr %10) #10
  call void @llvm.lifetime.end.p0(i64 4, ptr %9) #10
  br label %49

49:                                               ; preds = %46, %20
  store i32 0, ptr %8, align 4
  br label %50

50:                                               ; preds = %49, %16
  call void @llvm.lifetime.end.p0(i64 4, ptr %7) #10
  %51 = load i32, ptr %8, align 4
  switch i32 %51, label %53 [
    i32 0, label %52
    i32 1, label %52
  ]

52:                                               ; preds = %50, %50
  ret void

53:                                               ; preds = %50
  unreachable
}