; Function Attrs: nounwind uwtable
define internal fastcc void @b2ExecuteMainStage(ptr noundef captures(none) %0, ptr noundef %1, i32 noundef %2) unnamed_addr #3 {
  %4 = getelementptr inbounds nuw i8, ptr %0, i64 16
  %5 = load i32, ptr %4, align 8, !tbaa !123
  switch i32 %5, label %9 [
    i32 0, label %54
    i32 1, label %6
  ]

6:                                                ; preds = %3
  %7 = getelementptr inbounds nuw i8, ptr %0, i64 8
  %8 = load ptr, ptr %7, align 8, !tbaa !122
  tail call fastcc void @b2ExecuteBlock(ptr noundef nonnull %0, ptr noundef %1, ptr noundef %8)
  br label %54

9:                                                ; preds = %3
  %10 = getelementptr inbounds nuw i8, ptr %1, i64 240
  store atomic i32 %2, ptr %10 seq_cst, align 4
  %11 = lshr i32 %2, 16
  %12 = add nsw i32 %11, -1
  %13 = getelementptr inbounds nuw i8, ptr %0, i64 8
  %14 = load ptr, ptr %13, align 8, !tbaa !122
  %15 = load i32, ptr %4, align 8, !tbaa !123
  %.fr = freeze i32 %15
  %16 = getelementptr inbounds nuw i8, ptr %1, i64 156
  %17 = load i32, ptr %16, align 4, !tbaa !137
  %.not.i.i = icmp sgt i32 %.fr, %17
  br i1 %.not.i.i, label %GetWorkerStartIndex.exit.i, label %18

18:                                               ; preds = %9
  %19 = icmp sgt i32 %.fr, 0
  br i1 %19, label %.preheader41.i, label %b2ExecuteStage.exit

GetWorkerStartIndex.exit.i:                       ; preds = %9
  %20 = srem i32 %.fr, %17
  %21 = tail call noundef i32 @llvm.smin.i32(i32 %20, i32 0)
  %22 = icmp eq i32 %20, -1
  br i1 %22, label %b2ExecuteStage.exit, label %.preheader41.i

.preheader41.i:                                   ; preds = %18, %GetWorkerStartIndex.exit.i
  %.0.i.i17 = phi i32 [ %21, %GetWorkerStartIndex.exit.i ], [ 0, %18 ]
  %23 = sext i32 %.0.i.i17 to i64
  %24 = getelementptr inbounds %struct.b2SolverBlock, ptr %14, i64 %23
  %25 = getelementptr inbounds nuw i8, ptr %24, i64 8
  %26 = cmpxchg ptr %25, i32 %12, i32 %11 seq_cst seq_cst, align 4
  %27 = extractvalue { i32, i1 } %26, 1
  br i1 %27, label %.lr.ph.i, label %.preheader.i

.preheader.i:                                     ; preds = %.lr.ph.i, %.preheader41.i
  %.036.lcssa.i = phi i32 [ 0, %.preheader41.i ], [ %34, %.lr.ph.i ]
  %.245.i = add nsw i32 %.fr, -1
  %28 = sext i32 %.245.i to i64
  %29 = getelementptr inbounds %struct.b2SolverBlock, ptr %14, i64 %28
  %30 = getelementptr inbounds nuw i8, ptr %29, i64 8
  %31 = cmpxchg ptr %30, i32 %12, i32 %11 seq_cst seq_cst, align 4
  %32 = extractvalue { i32, i1 } %31, 1
  br i1 %32, label %.lr.ph48.i, label %._crit_edge.i

.lr.ph.i:                                         ; preds = %.preheader41.i, %.lr.ph.i
  %33 = phi ptr [ %37, %.lr.ph.i ], [ %24, %.preheader41.i ]
  %.043.i = phi i32 [ %spec.store.select.i, %.lr.ph.i ], [ %.0.i.i17, %.preheader41.i ]
  %.03642.i = phi i32 [ %34, %.lr.ph.i ], [ 0, %.preheader41.i ]
  tail call fastcc void @b2ExecuteBlock(ptr noundef %0, ptr noundef %1, ptr noundef %33)
  %34 = add nuw nsw i32 %.03642.i, 1
  %35 = add nsw i32 %.043.i, 1
  %.not.i = icmp slt i32 %35, %.fr
  %spec.store.select.i = select i1 %.not.i, i32 %35, i32 0
  %36 = sext i32 %spec.store.select.i to i64
  %37 = getelementptr inbounds %struct.b2SolverBlock, ptr %14, i64 %36
  %38 = getelementptr inbounds nuw i8, ptr %37, i64 8
  %39 = cmpxchg ptr %38, i32 %12, i32 %11 seq_cst seq_cst, align 4
  %40 = extractvalue { i32, i1 } %39, 1
  br i1 %40, label %.lr.ph.i, label %.preheader.i, !llvm.loop !227

.lr.ph48.i:                                       ; preds = %.preheader.i, %.lr.ph48.i
  %41 = phi ptr [ %45, %.lr.ph48.i ], [ %29, %.preheader.i ]
  %.247.i = phi i32 [ %.2.i, %.lr.ph48.i ], [ %.245.i, %.preheader.i ]
  %.13746.i = phi i32 [ %42, %.lr.ph48.i ], [ %.036.lcssa.i, %.preheader.i ]
  tail call fastcc void @b2ExecuteBlock(ptr noundef %0, ptr noundef %1, ptr noundef %41)
  %42 = add nuw nsw i32 %.13746.i, 1
  %43 = icmp slt i32 %.247.i, 1
  %spec.select.i = select i1 %43, i32 %.fr, i32 %.247.i
  %.2.i = add nsw i32 %spec.select.i, -1
  %44 = sext i32 %.2.i to i64
  %45 = getelementptr inbounds %struct.b2SolverBlock, ptr %14, i64 %44
  %46 = getelementptr inbounds nuw i8, ptr %45, i64 8
  %47 = cmpxchg ptr %46, i32 %12, i32 %11 seq_cst seq_cst, align 4
  %48 = extractvalue { i32, i1 } %47, 1
  br i1 %48, label %.lr.ph48.i, label %._crit_edge.i

._crit_edge.i:                                    ; preds = %.lr.ph48.i, %.preheader.i
  %.137.lcssa.i = phi i32 [ %.036.lcssa.i, %.preheader.i ], [ %42, %.lr.ph48.i ]
  %49 = getelementptr inbounds nuw i8, ptr %0, i64 24
  %50 = atomicrmw add ptr %49, i32 %.137.lcssa.i seq_cst, align 4
  br label %b2ExecuteStage.exit

b2ExecuteStage.exit:                              ; preds = %18, %GetWorkerStartIndex.exit.i, %._crit_edge.i
  %51 = getelementptr inbounds nuw i8, ptr %0, i64 24
  %52 = load atomic i32, ptr %51 seq_cst, align 4
  %.not20 = icmp eq i32 %52, %5
  br i1 %.not20, label %._crit_edge, label %.lr.ph

.lr.ph:                                           ; preds = %b2ExecuteStage.exit, %.lr.ph
  tail call void asm sideeffect "pause\0A", "~{dirflag},~{fpsr},~{flags}"() #8, !srcloc !228
  %53 = load atomic i32, ptr %51 seq_cst, align 4
  %.not = icmp eq i32 %53, %5
  br i1 %.not, label %._crit_edge, label %.lr.ph, !llvm.loop !229

._crit_edge:                                      ; preds = %.lr.ph, %b2ExecuteStage.exit
  store atomic i32 0, ptr %51 seq_cst, align 4
  br label %54

54:                                               ; preds = %6, %._crit_edge, %3
  ret void
}